target datalayout = "e-m:e-p270:32:32-p271:32:32-p272:64:64-i64:64-i128:128-f80:128-n8:16:32:64-S128"
target triple = "x86_64-pc-linux-gnu"

; Function Attrs: nounwind sspstrong uwtable
define internal i32 @case_map(ptr noundef %0, ptr noundef %1, ptr noundef %2, ptr noundef %3, ptr noundef %4, ptr noundef %5) #0 {
  %7 = alloca ptr, align 8
  %8 = alloca ptr, align 8
  %9 = alloca ptr, align 8
  %10 = alloca ptr, align 8
  %11 = alloca ptr, align 8
  %12 = alloca ptr, align 8
  %13 = alloca i32, align 4
  %14 = alloca ptr, align 8
  %15 = alloca i32, align 4
  store ptr %0, ptr %7, align 8, !tbaa !23
  store ptr %1, ptr %8, align 8, !tbaa !14
  store ptr %2, ptr %9, align 8, !tbaa !16
  store ptr %3, ptr %10, align 8, !tbaa !16
  store ptr %4, ptr %11, align 8, !tbaa !16
  store ptr %5, ptr %12, align 8, !tbaa !17
  call void @llvm.lifetime.start.p0(i64 4, ptr %13) #3
  call void @llvm.lifetime.start.p0(i64 8, ptr %14) #3
  %16 = load ptr, ptr %10, align 8, !tbaa !16
  store ptr %16, ptr %14, align 8, !tbaa !16
  call void @llvm.lifetime.start.p0(i64 4, ptr %15) #3
  %17 = load ptr, ptr %7, align 8, !tbaa !23
  %18 = load i32, ptr %17, align 4, !tbaa !13
  store i32 %18, ptr %15, align 4, !tbaa !13
  br label %19

19:                                               ; preds = %94, %6
  %20 = load ptr, ptr %8, align 8, !tbaa !14
  %21 = load ptr, ptr %20, align 8, !tbaa !16
  %22 = load ptr, ptr %9, align 8, !tbaa !16
  %23 = icmp ult ptr %21, %22
  br i1 %23, label %24, label %28

24:                                               ; preds = %19
  %25 = load ptr, ptr %10, align 8, !tbaa !16
  %26 = load ptr, ptr %11, align 8, !tbaa !16
  %27 = icmp ult ptr %25, %26
  br label %28

28:                                               ; preds = %24, %19
  %29 = phi i1 [ false, %19 ], [ %27, %24 ]
  br i1 %29, label %30, label %95

30:                                               ; preds = %28
  %31 = load ptr, ptr %8, align 8, !tbaa !14
  %32 = load ptr, ptr %31, align 8, !tbaa !16
  %33 = getelementptr inbounds nuw i8, ptr %32, i32 1
  store ptr %33, ptr %31, align 8, !tbaa !16
  %34 = load i8, ptr %32, align 1, !tbaa !19
  %35 = zext i8 %34 to i32
  store i32 %35, ptr %13, align 4, !tbaa !13
  %36 = load i32, ptr %13, align 4, !tbaa !13
  %37 = zext i32 %36 to i64
  %38 = getelementptr inbounds nuw [256 x i16], ptr @EncISO_8859_5_CtypeTable, i64 0, i64 %37
  %39 = load i16, ptr %38, align 2, !tbaa !21
  %40 = zext i16 %39 to i32
  %41 = and i32 %40, 1024
  %42 = icmp ne i32 %41, 0
  br i1 %42, label %43, label %55

43:                                               ; preds = %30
  %44 = load i32, ptr %15, align 4, !tbaa !13
  %45 = and i32 %44, 540672
  %46 = icmp ne i32 %45, 0
  br i1 %46, label %47, label %55

47:                                               ; preds = %43
  %48 = load i32, ptr %15, align 4, !tbaa !13
  %49 = or i32 %48, 262144
  store i32 %49, ptr %15, align 4, !tbaa !13
  %50 = load i32, ptr %13, align 4, !tbaa !13
  %51 = zext i32 %50 to i64
  %52 = getelementptr inbounds nuw [256 x i8], ptr @EncISO_8859_5_ToLowerCaseTable, i64 0, i64 %51
  %53 = load i8, ptr %52, align 1, !tbaa !19
  %54 = zext i8 %53 to i32
  store i32 %54, ptr %13, align 4, !tbaa !13
  br label %83

55:                                               ; preds = %43, %30
  %56 = load i32, ptr %13, align 4, !tbaa !13
  %57 = zext i32 %56 to i64
  %58 = getelementptr inbounds nuw [256 x i16], ptr @EncISO_8859_5_CtypeTable, i64 0, i64 %57
  %59 = load i16, ptr %58, align 2, !tbaa !21
  %60 = zext i16 %59 to i32
  %61 = and i32 %60, 64
  %62 = icmp ne i32 %61, 0
  br i1 %62, label %63, label %82

63:                                               ; preds = %55
  %64 = load i32, ptr %15, align 4, !tbaa !13
  %65 = and i32 %64, 8192
  %66 = icmp ne i32 %65, 0
  br i1 %66, label %67, label %82

67:                                               ; preds = %63
  %68 = load i32, ptr %15, align 4, !tbaa !13
  %69 = or i32 %68, 262144
  store i32 %69, ptr %15, align 4, !tbaa !13
  %70 = load i32, ptr %13, align 4, !tbaa !13
  %71 = icmp ule i32 241, %70
  br i1 %71, label %72, label %78

72:                                               ; preds = %67
  %73 = load i32, ptr %13, align 4, !tbaa !13
  %74 = icmp ule i32 %73, 255
  br i1 %74, label %75, label %78

75:                                               ; preds = %72
  %76 = load i32, ptr %13, align 4, !tbaa !13
  %77 = sub i32 %76, 80
  store i32 %77, ptr %13, align 4, !tbaa !13
  br label %81

78:                                               ; preds = %72, %67
  %79 = load i32, ptr %13, align 4, !tbaa !13
  %80 = sub i32 %79, 32
  store i32 %80, ptr %13, align 4, !tbaa !13
  br label %81

81:                                               ; preds = %78, %75
  br label %82

82:                                               ; preds = %81, %63, %55
  br label %83

83:                                               ; preds = %82, %47
  %84 = load i32, ptr %13, align 4, !tbaa !13
  %85 = trunc i32 %84 to i8
  %86 = load ptr, ptr %10, align 8, !tbaa !16
  %87 = getelementptr inbounds nuw i8, ptr %86, i32 1
  store ptr %87, ptr %10, align 8, !tbaa !16
  store i8 %85, ptr %86, align 1, !tbaa !19
  %88 = load i32, ptr %15, align 4, !tbaa !13
  %89 = and i32 %88, 32768
  %90 = icmp ne i32 %89, 0
  br i1 %90, label %91, label %94

91:                                               ; preds = %83
  %92 = load i32, ptr %15, align 4, !tbaa !13
  %93 = xor i32 %92, 57344
  store i32 %93, ptr %15, align 4, !tbaa !13
  br label %94

94:                                               ; preds = %91, %83
  br label %19, !llvm.loop !25

95:                                               ; preds = %28
  %96 = load i32, ptr %15, align 4, !tbaa !13
  %97 = load ptr, ptr %7, align 8, !tbaa !23
  store i32 %96, ptr %97, align 4, !tbaa !13
  %98 = load ptr, ptr %10, align 8, !tbaa !16
  %99 = load ptr, ptr %14, align 8, !tbaa !16
  %100 = ptrtoint ptr %98 to i64
  %101 = ptrtoint ptr %99 to i64
  %102 = sub i64 %100, %101
  %103 = trunc i64 %102 to i32
  call void @llvm.lifetime.end.p0(i64 4, ptr %15) #3
  call void @llvm.lifetime.end.p0(i64 8, ptr %14) #3
  call void @llvm.lifetime.end.p0(i64 4, ptr %13) #3
  ret i32 %103
}