; Function Attrs: nofree norecurse nosync nounwind sspstrong memory(read, argmem: readwrite, inaccessiblemem: none) uwtable
define internal i32 @case_map(ptr noundef captures(none) %0, ptr noundef captures(none) %1, ptr noundef readnone captures(address) %2, ptr noundef %3, ptr noundef readnone captures(address) %4, ptr readnone captures(none) %5) #4 {
  %7 = load i32, ptr %0, align 4, !tbaa !14
  %8 = load ptr, ptr %1, align 8, !tbaa !6
  %9 = icmp ult ptr %8, %2
  %10 = icmp ult ptr %3, %4
  %11 = and i1 %9, %10
  br i1 %11, label %.lr.ph, label %._crit_edge

.lr.ph:                                           ; preds = %6, %34
  %12 = phi ptr [ %38, %34 ], [ %8, %6 ]
  %.037 = phi i32 [ %spec.select, %34 ], [ %7, %6 ]
  %.02636 = phi ptr [ %35, %34 ], [ %3, %6 ]
  %13 = getelementptr inbounds nuw i8, ptr %12, i64 1
  store ptr %13, ptr %1, align 8, !tbaa !6
  %14 = load i8, ptr %12, align 1, !tbaa !11
  %15 = zext i8 %14 to i64
  %16 = getelementptr inbounds nuw [256 x i16], ptr @EncISO_8859_5_CtypeTable, i64 0, i64 %15
  %17 = load i16, ptr %16, align 2, !tbaa !12
  %18 = and i16 %17, 1024
  %.not = icmp eq i16 %18, 0
  %19 = and i32 %.037, 540672
  %.not31 = icmp eq i32 %19, 0
  %or.cond = select i1 %.not, i1 true, i1 %.not31
  br i1 %or.cond, label %24, label %20

20:                                               ; preds = %.lr.ph
  %21 = or i32 %.037, 262144
  %22 = getelementptr inbounds nuw [256 x i8], ptr @EncISO_8859_5_ToLowerCaseTable, i64 0, i64 %15
  %23 = load i8, ptr %22, align 1, !tbaa !11
  br label %34

24:                                               ; preds = %.lr.ph
  %25 = and i16 %17, 64
  %.not32 = icmp eq i16 %25, 0
  %26 = and i32 %.037, 8192
  %.not33 = icmp eq i32 %26, 0
  %or.cond35 = select i1 %.not32, i1 true, i1 %.not33
  br i1 %or.cond35, label %34, label %27

27:                                               ; preds = %24
  %28 = or i32 %.037, 262144
  %29 = icmp ugt i8 %14, -16
  br i1 %29, label %30, label %32

30:                                               ; preds = %27
  %31 = add nsw i8 %14, -80
  br label %34

32:                                               ; preds = %27
  %33 = add i8 %14, -32
  br label %34

34:                                               ; preds = %24, %32, %30, %20
  %.027 = phi i8 [ %23, %20 ], [ %31, %30 ], [ %33, %32 ], [ %14, %24 ]
  %.1 = phi i32 [ %21, %20 ], [ %28, %30 ], [ %28, %32 ], [ %.037, %24 ]
  %35 = getelementptr inbounds nuw i8, ptr %.02636, i64 1
  store i8 %.027, ptr %.02636, align 1, !tbaa !11
  %36 = and i32 %.1, 32768
  %.not34 = icmp eq i32 %36, 0
  %37 = xor i32 %.1, 57344
  %spec.select = select i1 %.not34, i32 %.1, i32 %37
  %38 = load ptr, ptr %1, align 8, !tbaa !6
  %39 = icmp ult ptr %38, %2
  %40 = icmp ult ptr %35, %4
  %41 = select i1 %39, i1 %40, i1 false
  br i1 %41, label %.lr.ph, label %._crit_edge, !llvm.loop !16

._crit_edge:                                      ; preds = %34, %6
  %.026.lcssa = phi ptr [ %3, %6 ], [ %35, %34 ]
  %.0.lcssa = phi i32 [ %7, %6 ], [ %spec.select, %34 ]
  store i32 %.0.lcssa, ptr %0, align 4, !tbaa !14
  %42 = ptrtoint ptr %.026.lcssa to i64
  %43 = ptrtoint ptr %3 to i64
  %44 = sub i64 %42, %43
  %45 = trunc i64 %44 to i32
  ret i32 %45
}